; Function Attrs: mustprogress nounwind uwtable
define hidden void @_ZN22ShenandoahSimpleBitMapC2Em(ptr nocapture noundef nonnull align 8 dereferenceable(24) %0, i64 noundef %1) unnamed_addr #0 align 2 {
  store i64 %1, ptr %0, align 8
  %3 = getelementptr inbounds i8, ptr %0, i64 8
  %4 = add i64 %1, 63
  %5 = lshr i64 %4, 6
  store i64 %5, ptr %3, align 8
  %6 = getelementptr inbounds i8, ptr %0, i64 16
  %7 = shl nuw nsw i64 %5, 3
  %8 = tail call noundef ptr @_Z12AllocateHeapm8MEMFLAGSN17AllocFailStrategy13AllocFailEnumE(i64 noundef %7, i8 noundef zeroext 5, i32 noundef 0) #5
  store ptr %8, ptr %6, align 8
  %9 = load i64, ptr %3, align 8
  %.not.i = icmp eq i64 %9, 0
  br i1 %.not.i, label %_ZN22ShenandoahSimpleBitMap9clear_allEv.exit, label %.lr.ph.i

.lr.ph.i:                                         ; preds = %2, %.lr.ph.i
  %.03.i = phi i64 [ %12, %.lr.ph.i ], [ 0, %2 ]
  %10 = load ptr, ptr %6, align 8
  %11 = getelementptr inbounds i64, ptr %10, i64 %.03.i
  store i64 0, ptr %11, align 8
  %12 = add nuw i64 %.03.i, 1
  %13 = load i64, ptr %3, align 8
  %14 = icmp ult i64 %12, %13
  br i1 %14, label %.lr.ph.i, label %_ZN22ShenandoahSimpleBitMap9clear_allEv.exit, !llvm.loop !6

_ZN22ShenandoahSimpleBitMap9clear_allEv.exit:     ; preds = %.lr.ph.i, %2
  ret void
}